; Function Attrs: mustprogress nofree norecurse nosync nounwind willreturn memory(readwrite, inaccessiblemem: none) uwtable
define void @dt_iop_gui_blending_reload_defaults(ptr noundef readonly %0) local_unnamed_addr #11 {
  %.not = icmp eq ptr %0, null
  br i1 %.not, label %12, label %2

2:                                                ; preds = %1
  %3 = getelementptr inbounds nuw i8, ptr %0, i64 776
  %4 = load ptr, ptr %3, align 8, !tbaa !6
  %.not7 = icmp eq ptr %4, null
  br i1 %.not7, label %12, label %5

5:                                                ; preds = %2
  %6 = load i32, ptr %4, align 8, !tbaa !141
  %.not8 = icmp eq i32 %6, 0
  br i1 %.not8, label %12, label %7

7:                                                ; preds = %5
  %8 = getelementptr inbounds nuw i8, ptr %4, i64 8
  %9 = load i32, ptr %8, align 8, !tbaa !142
  %.not9 = icmp eq i32 %9, 0
  br i1 %.not9, label %12, label %10

10:                                               ; preds = %7
  %11 = getelementptr inbounds nuw i8, ptr %4, i64 480
  store i32 0, ptr %11, align 8, !tbaa !73
  br label %12

12:                                               ; preds = %10, %7, %5, %2, %1
  ret void
}